target datalayout = "e-m:e-p270:32:32-p271:32:32-p272:64:64-i64:64-i128:128-f80:128-n8:16:32:64-S128"
target triple = "x86_64-pc-linux-gnu"

%struct.PyConfig = type { i32, i32, i32, i32, i32, i32, i64, i32, i32, i32, i32, i32, i32, i32, ptr, i32, ptr, ptr, ptr, i32, %struct.PyWideStringList, %struct.PyWideStringList, %struct.PyWideStringList, %struct.PyWideStringList, i32, i32, i32, i32, i32, i32, i32, i32, i32, i32, i32, i32, i32, ptr, ptr, ptr, i32, i32, i32, i32, i32, ptr, ptr, ptr, ptr, i32, %struct.PyWideStringList, ptr, ptr, ptr, ptr, ptr, ptr, ptr, i32, ptr, ptr, ptr, ptr, i32, i32, i32 }
%struct.PyWideStringList = type { i64, ptr }
%struct.PyStatus = type { i32, ptr, ptr, i32 }

; Function Attrs: nounwind uwtable
define hidden i32 @LLVMFuzzerInitialize(ptr noundef %0, ptr noundef %1) #0 {
  %3 = alloca ptr, align 8
  %4 = alloca ptr, align 8
  %5 = alloca %struct.PyConfig, align 8
  %6 = alloca %struct.PyStatus, align 8
  %7 = alloca %struct.PyStatus, align 8
  %8 = alloca %struct.PyStatus, align 8
  store ptr %0, ptr %3, align 8, !tbaa !3
  store ptr %1, ptr %4, align 8, !tbaa !8
  call void @llvm.lifetime.start.p0(i64 448, ptr %5) #9
  call void @PyConfig_InitPythonConfig(ptr noundef %5)
  %9 = getelementptr inbounds nuw %struct.PyConfig, ptr %5, i32 0, i32 4
  store i32 0, ptr %9, align 8, !tbaa !10
  %10 = getelementptr inbounds nuw %struct.PyConfig, ptr %5, i32 0, i32 42
  store i32 8086, ptr %10, align 8, !tbaa !16
  call void @llvm.lifetime.start.p0(i64 32, ptr %6) #9
  call void @llvm.lifetime.start.p0(i64 32, ptr %7) #9
  %11 = getelementptr inbounds nuw %struct.PyConfig, ptr %5, i32 0, i32 45
  %12 = load ptr, ptr %4, align 8, !tbaa !8
  %13 = getelementptr ptr, ptr %12, i64 0
  %14 = load ptr, ptr %13, align 8, !tbaa !17
  %15 = load ptr, ptr %14, align 8, !tbaa !19
  call void @PyConfig_SetBytesString(ptr dead_on_unwind writable sret(%struct.PyStatus) align 8 %7, ptr noundef %5, ptr noundef %11, ptr noundef %15)
  call void @llvm.memcpy.p0.p0.i64(ptr align 8 %6, ptr align 8 %7, i64 32, i1 false), !tbaa.struct !21
  call void @llvm.lifetime.end.p0(i64 32, ptr %7) #9
  %16 = call i32 @PyStatus_Exception(ptr noundef byval(%struct.PyStatus) align 8 %6)
  %17 = icmp ne i32 %16, 0
  br i1 %17, label %18, label %19

18:                                               ; preds = %2
  br label %24

19:                                               ; preds = %2
  call void @llvm.lifetime.start.p0(i64 32, ptr %8) #9
  call void @Py_InitializeFromConfig(ptr dead_on_unwind writable sret(%struct.PyStatus) align 8 %8, ptr noundef %5)
  call void @llvm.memcpy.p0.p0.i64(ptr align 8 %6, ptr align 8 %8, i64 32, i1 false), !tbaa.struct !21
  call void @llvm.lifetime.end.p0(i64 32, ptr %8) #9
  %20 = call i32 @PyStatus_Exception(ptr noundef byval(%struct.PyStatus) align 8 %6)
  %21 = icmp ne i32 %20, 0
  br i1 %21, label %22, label %23

22:                                               ; preds = %19
  br label %24

23:                                               ; preds = %19
  call void @PyConfig_Clear(ptr noundef %5)
  call void @llvm.lifetime.end.p0(i64 32, ptr %6) #9
  call void @llvm.lifetime.end.p0(i64 448, ptr %5) #9
  ret i32 0

24:                                               ; preds = %22, %18
  call void @PyConfig_Clear(ptr noundef %5)
  call void @Py_ExitStatusException(ptr noundef byval(%struct.PyStatus) align 8 %6) #10
  unreachable
}