; Function Attrs: nounwind uwtable
define hidden noundef i32 @LLVMFuzzerInitialize(ptr noundef readnone captures(none) %0, ptr noundef readonly captures(none) %1) local_unnamed_addr #1 {
  %3 = alloca %struct.PyConfig, align 8
  %4 = alloca %struct.PyStatus, align 8
  %5 = alloca %struct.PyStatus, align 8
  call void @llvm.lifetime.start.p0(i64 448, ptr nonnull %3) #9
  call void @PyConfig_InitPythonConfig(ptr noundef nonnull %3) #9
  %6 = getelementptr inbounds nuw i8, ptr %3, i64 16
  store i32 0, ptr %6, align 8, !tbaa !3
  %7 = getelementptr inbounds nuw i8, ptr %3, i64 264
  store i32 8086, ptr %7, align 8, !tbaa !13
  call void @llvm.lifetime.start.p0(i64 32, ptr nonnull %4) #9
  %8 = getelementptr inbounds nuw i8, ptr %3, i64 280
  %9 = load ptr, ptr %1, align 8, !tbaa !14
  %10 = load ptr, ptr %9, align 8, !tbaa !16
  call void @PyConfig_SetBytesString(ptr dead_on_unwind nonnull writable sret(%struct.PyStatus) align 8 %4, ptr noundef nonnull %3, ptr noundef nonnull %8, ptr noundef %10) #9
  %11 = call i32 @PyStatus_Exception(ptr noundef nonnull byval(%struct.PyStatus) align 8 %4) #9
  %.not = icmp eq i32 %11, 0
  br i1 %.not, label %12, label %15

12:                                               ; preds = %2
  call void @llvm.lifetime.start.p0(i64 32, ptr nonnull %5) #9
  call void @Py_InitializeFromConfig(ptr dead_on_unwind nonnull writable sret(%struct.PyStatus) align 8 %5, ptr noundef nonnull %3) #9
  call void @llvm.memcpy.p0.p0.i64(ptr noundef nonnull align 8 dereferenceable(32) %4, ptr noundef nonnull align 8 dereferenceable(32) %5, i64 32, i1 false), !tbaa.struct !18
  call void @llvm.lifetime.end.p0(i64 32, ptr nonnull %5) #9
  %13 = call i32 @PyStatus_Exception(ptr noundef nonnull byval(%struct.PyStatus) align 8 %4) #9
  %.not1 = icmp eq i32 %13, 0
  br i1 %.not1, label %14, label %15

14:                                               ; preds = %12
  call void @PyConfig_Clear(ptr noundef nonnull %3) #9
  call void @llvm.lifetime.end.p0(i64 32, ptr nonnull %4) #9
  call void @llvm.lifetime.end.p0(i64 448, ptr nonnull %3) #9
  ret i32 0

15:                                               ; preds = %12, %2
  call void @PyConfig_Clear(ptr noundef nonnull %3) #9
  call void @Py_ExitStatusException(ptr noundef nonnull byval(%struct.PyStatus) align 8 %4) #10
  unreachable
}